; Function Attrs: nofree norecurse nosync nounwind memory(read, inaccessiblemem: none) uwtable
define ptr @ff_get_coded_side_data(ptr noundef readonly captures(none) %0, i32 noundef %1) local_unnamed_addr #6 {
  %3 = getelementptr inbounds nuw i8, ptr %0, i64 776
  %4 = load ptr, ptr %3, align 8, !tbaa !186
  %5 = getelementptr inbounds nuw i8, ptr %0, i64 784
  %6 = load i32, ptr %5, align 8, !tbaa !187
  %.not11.i = icmp sgt i32 %6, 0
  br i1 %.not11.i, label %.lr.ph.preheader.i, label %packet_side_data_get.exit

.lr.ph.preheader.i:                               ; preds = %2
  %wide.trip.count.i = zext nneg i32 %6 to i64
  br label %.lr.ph.i

7:                                                ; preds = %.lr.ph.i
  %indvars.iv.next.i = add nuw nsw i64 %indvars.iv.i, 1
  %exitcond.not.i = icmp eq i64 %indvars.iv.next.i, %wide.trip.count.i
  br i1 %exitcond.not.i, label %packet_side_data_get.exit, label %.lr.ph.i, !llvm.loop !188

.lr.ph.i:                                         ; preds = %7, %.lr.ph.preheader.i
  %indvars.iv.i = phi i64 [ 0, %.lr.ph.preheader.i ], [ %indvars.iv.next.i, %7 ]
  %8 = getelementptr inbounds nuw %struct.AVPacketSideData, ptr %4, i64 %indvars.iv.i
  %9 = getelementptr inbounds nuw i8, ptr %8, i64 16
  %10 = load i32, ptr %9, align 8, !tbaa !189
  %11 = icmp eq i32 %10, %1
  br i1 %11, label %packet_side_data_get.exit, label %7

packet_side_data_get.exit:                        ; preds = %7, %.lr.ph.i, %2
  %spec.select.i = phi ptr [ null, %2 ], [ null, %7 ], [ %8, %.lr.ph.i ]
  ret ptr %spec.select.i
}